((lp0
(lp1
S'kos35'
p2
aS'kos23'
p3
aS'kos01'
p4
aS'kos12'
p5
aS'kos05'
p6
aS'kos36'
p7
aS'kos49'
p8
aS'kos26'
p9
aS'kos50'
p10
aS'kos22'
p11
aS'kos14'
p12
aS'kos03'
p13
aS'kos29'
p14
aS'kos24'
p15
aS'kos04'
p16
aS'kos33'
p17
aS'kos06'
p18
aS'kos17'
p19
aS'kos40'
p20
aS'kos20'
p21
aS'kos32'
p22
aS'kos31'
p23
aS'kos42'
p24
aS'kos13'
p25
aS'kos39'
p26
aa(lp27
S'kos18'
p28
aS'kos33'
p29
aS'kos10'
p30
aS'kos14'
p31
aS'kos16'
p32
aS'kos13'
p33
aS'kos28'
p34
aS'kos05'
p35
aS'kos25'
p36
aS'kos23'
p37
aS'kos41'
p38
aS'kos02'
p39
aS'kos26'
p40
aS'kos21'
p41
aS'kos38'
p42
aS'kos43'
p43
aS'kos46'
p44
aS'kos30'
p45
aS'kos20'
p46
aS'kos27'
p47
aS'kos49'
p48
aS'kos35'
p49
aS'kos15'
p50
aS'kos37'
p51
aS'kos45'
p52
aa(lp53
S'kos19'
p54
aS'kos29'
p55
aS'kos40'
p56
aS'kos24'
p57
aS'kos06'
p58
aS'kos10'
p59
aS'kos22'
p60
aS'kos08'
p61
aS'kos41'
p62
aS'kos37'
p63
aS'kos02'
p64
aS'kos17'
p65
aS'kos15'
p66
aS'kos30'
p67
aS'kos38'
p68
aS'kos44'
p69
aS'kos03'
p70
aS'kos32'
p71
aS'kos27'
p72
aS'kos21'
p73
aS'kos11'
p74
aS'kos48'
p75
aS'kos09'
p76
aS'kos28'
p77
aS'kos04'
p78
aa(lp79
(lp80
S'kos02'
p81
aS'kos08'
p82
aS'kos09'
p83
aS'kos10'
p84
aS'kos15'
p85
aS'kos19'
p86
aS'kos21'
p87
aS'kos25'
p88
aS'kos27'
p89
aS'kos28'
p90
aS'kos30'
p91
aS'kos37'
p92
aS'kos38'
p93
aS'kos41'
p94
aS'kos43'
p95
aS'kos46'
p96
aS'kos47'
p97
aa(lp98
S'kos01'
p99
aS'kos03'
p100
aS'kos04'
p101
aS'kos06'
p102
aS'kos11'
p103
aS'kos17'
p104
aS'kos22'
p105
aS'kos24'
p106
aS'kos29'
p107
aS'kos31'
p108
aS'kos32'
p109
aS'kos36'
p110
aS'kos39'
p111
aS'kos40'
p112
aS'kos42'
p113
aS'kos44'
p114
aS'kos48'
p115
aa(lp116
S'kos05'
p117
aS'kos07'
p118
aS'kos12'
p119
aS'kos13'
p120
aS'kos14'
p121
aS'kos16'
p122
aS'kos18'
p123
aS'kos20'
p124
aS'kos23'
p125
aS'kos26'
p126
aS'kos33'
p127
aS'kos34'
p128
aS'kos35'
p129
aS'kos45'
p130
aS'kos49'
p131
aS'kos50'
p132
aa(lp133
g4
ag81
ag13
ag16
ag6
ag18
aS'kos07'
p134
ag82
ag83
ag84
aS'kos11'
p135
ag5
ag25
ag12
ag85
aS'kos16'
p136
ag19
aS'kos18'
p137
ag86
ag21
ag87
ag11
ag3
ag15
ag88
ag9
ag89
ag90
ag14
ag91
ag23
ag22
ag17
aS'kos34'
p138
ag2
ag7
ag92
ag93
ag26
ag20
ag94
ag24
ag95
aS'kos44'
p139
aS'kos45'
p140
ag96
ag97
aS'kos48'
p141
ag8
ag10
atp142
.