((lp0
(lp1
S'kos50'
p2
aS'kos12'
p3
aS'kos06'
p4
aS'kos40'
p5
aS'kos05'
p6
aS'kos29'
p7
aS'kos22'
p8
aS'kos39'
p9
aS'kos24'
p10
aS'kos33'
p11
aS'kos35'
p12
aS'kos26'
p13
aS'kos14'
p14
aS'kos20'
p15
aS'kos01'
p16
aS'kos42'
p17
aS'kos32'
p18
aS'kos04'
p19
aS'kos49'
p20
aS'kos23'
p21
aa(lp22
S'kos16'
p23
aS'kos41'
p24
aS'kos21'
p25
aS'kos23'
p26
aS'kos05'
p27
aS'kos38'
p28
aS'kos26'
p29
aS'kos28'
p30
aS'kos18'
p31
aS'kos20'
p32
aS'kos10'
p33
aS'kos33'
p34
aS'kos13'
p35
aS'kos45'
p36
aS'kos46'
p37
aS'kos14'
p38
aS'kos35'
p39
aS'kos02'
p40
aS'kos37'
p41
aS'kos15'
p42
aa(lp43
S'kos22'
p44
aS'kos10'
p45
aS'kos27'
p46
aS'kos30'
p47
aS'kos04'
p48
aS'kos24'
p49
aS'kos17'
p50
aS'kos15'
p51
aS'kos28'
p52
aS'kos40'
p53
aS'kos08'
p54
aS'kos29'
p55
aS'kos48'
p56
aS'kos09'
p57
aS'kos38'
p58
aS'kos41'
p59
aS'kos03'
p60
aS'kos21'
p61
aS'kos32'
p62
aS'kos06'
p63
aa(lp64
(lp65
S'kos02'
p66
aS'kos08'
p67
aS'kos09'
p68
aS'kos10'
p69
aS'kos15'
p70
aS'kos19'
p71
aS'kos21'
p72
aS'kos25'
p73
aS'kos27'
p74
aS'kos28'
p75
aS'kos30'
p76
aS'kos37'
p77
aS'kos38'
p78
aS'kos41'
p79
aS'kos43'
p80
aS'kos46'
p81
aS'kos47'
p82
aa(lp83
S'kos01'
p84
aS'kos03'
p85
aS'kos04'
p86
aS'kos06'
p87
aS'kos11'
p88
aS'kos17'
p89
aS'kos22'
p90
aS'kos24'
p91
aS'kos29'
p92
aS'kos31'
p93
aS'kos32'
p94
aS'kos36'
p95
aS'kos39'
p96
aS'kos40'
p97
aS'kos42'
p98
aS'kos44'
p99
aS'kos48'
p100
aa(lp101
S'kos05'
p102
aS'kos07'
p103
aS'kos12'
p104
aS'kos13'
p105
aS'kos14'
p106
aS'kos16'
p107
aS'kos18'
p108
aS'kos20'
p109
aS'kos23'
p110
aS'kos26'
p111
aS'kos33'
p112
aS'kos34'
p113
aS'kos35'
p114
aS'kos45'
p115
aS'kos49'
p116
aS'kos50'
p117
aa(lp118
g16
ag66
aS'kos03'
p119
ag19
ag6
ag4
aS'kos07'
p120
ag67
ag68
ag69
aS'kos11'
p121
ag3
aS'kos13'
p122
ag14
ag70
aS'kos16'
p123
aS'kos17'
p124
aS'kos18'
p125
ag71
ag15
ag72
ag8
ag21
ag10
ag73
ag13
ag74
ag75
ag7
ag76
aS'kos31'
p126
ag18
ag11
aS'kos34'
p127
ag12
aS'kos36'
p128
ag77
ag78
ag9
ag5
ag79
ag17
ag80
aS'kos44'
p129
aS'kos45'
p130
ag81
ag82
aS'kos48'
p131
ag20
ag2
atp132
.