((lp0
(lp1
S'kos49'
p2
aS'kos32'
p3
aS'kos01'
p4
aS'kos04'
p5
aS'kos33'
p6
aS'kos05'
p7
aS'kos23'
p8
aS'kos26'
p9
aS'kos06'
p10
aS'kos14'
p11
aS'kos24'
p12
aS'kos12'
p13
aS'kos35'
p14
aS'kos42'
p15
aS'kos39'
p16
aa(lp17
S'kos05'
p18
aS'kos37'
p19
aS'kos35'
p20
aS'kos15'
p21
aS'kos18'
p22
aS'kos10'
p23
aS'kos23'
p24
aS'kos46'
p25
aS'kos38'
p26
aS'kos33'
p27
aS'kos16'
p28
aS'kos21'
p29
aS'kos14'
p30
aS'kos20'
p31
aS'kos41'
p32
aa(lp33
S'kos28'
p34
aS'kos21'
p35
aS'kos08'
p36
aS'kos17'
p37
aS'kos27'
p38
aS'kos04'
p39
aS'kos09'
p40
aS'kos22'
p41
aS'kos38'
p42
aS'kos29'
p43
aS'kos10'
p44
aS'kos48'
p45
aS'kos24'
p46
aS'kos03'
p47
aS'kos06'
p48
aa(lp49
(lp50
S'kos02'
p51
aS'kos08'
p52
aS'kos09'
p53
aS'kos10'
p54
aS'kos15'
p55
aS'kos19'
p56
aS'kos21'
p57
aS'kos25'
p58
aS'kos27'
p59
aS'kos28'
p60
aS'kos30'
p61
aS'kos37'
p62
aS'kos38'
p63
aS'kos41'
p64
aS'kos43'
p65
aS'kos46'
p66
aS'kos47'
p67
aa(lp68
S'kos01'
p69
aS'kos03'
p70
aS'kos04'
p71
aS'kos06'
p72
aS'kos11'
p73
aS'kos17'
p74
aS'kos22'
p75
aS'kos24'
p76
aS'kos29'
p77
aS'kos31'
p78
aS'kos32'
p79
aS'kos36'
p80
aS'kos39'
p81
aS'kos40'
p82
aS'kos42'
p83
aS'kos44'
p84
aS'kos48'
p85
aa(lp86
S'kos05'
p87
aS'kos07'
p88
aS'kos12'
p89
aS'kos13'
p90
aS'kos14'
p91
aS'kos16'
p92
aS'kos18'
p93
aS'kos20'
p94
aS'kos23'
p95
aS'kos26'
p96
aS'kos33'
p97
aS'kos34'
p98
aS'kos35'
p99
aS'kos45'
p100
aS'kos49'
p101
aS'kos50'
p102
aa(lp103
g4
ag51
aS'kos03'
p104
ag5
ag7
ag10
aS'kos07'
p105
ag52
ag53
ag54
aS'kos11'
p106
ag13
aS'kos13'
p107
ag11
ag55
aS'kos16'
p108
aS'kos17'
p109
aS'kos18'
p110
ag56
aS'kos20'
p111
ag57
aS'kos22'
p112
ag8
ag12
ag58
ag9
ag59
ag60
aS'kos29'
p113
ag61
aS'kos31'
p114
ag3
ag6
aS'kos34'
p115
ag14
aS'kos36'
p116
ag62
ag63
ag16
aS'kos40'
p117
ag64
ag15
ag65
aS'kos44'
p118
aS'kos45'
p119
ag66
ag67
aS'kos48'
p120
ag2
aS'kos50'
p121
atp122
.