((lp0
(lp1
S'kos33'
p2
aS'kos49'
p3
aS'kos26'
p4
aS'kos04'
p5
aS'kos01'
p6
aS'kos14'
p7
aS'kos24'
p8
aS'kos35'
p9
aS'kos42'
p10
aS'kos05'
p11
aa(lp12
S'kos14'
p13
aS'kos21'
p14
aS'kos16'
p15
aS'kos15'
p16
aS'kos05'
p17
aS'kos37'
p18
aS'kos10'
p19
aS'kos46'
p20
aS'kos41'
p21
aS'kos20'
p22
aa(lp23
S'kos29'
p24
aS'kos09'
p25
aS'kos28'
p26
aS'kos21'
p27
aS'kos24'
p28
aS'kos22'
p29
aS'kos17'
p30
aS'kos06'
p31
aS'kos04'
p32
aS'kos48'
p33
aa(lp34
(lp35
S'kos02'
p36
aS'kos08'
p37
aS'kos09'
p38
aS'kos10'
p39
aS'kos15'
p40
aS'kos19'
p41
aS'kos21'
p42
aS'kos25'
p43
aS'kos27'
p44
aS'kos28'
p45
aS'kos30'
p46
aS'kos37'
p47
aS'kos38'
p48
aS'kos41'
p49
aS'kos43'
p50
aS'kos46'
p51
aS'kos47'
p52
aa(lp53
S'kos01'
p54
aS'kos03'
p55
aS'kos04'
p56
aS'kos06'
p57
aS'kos11'
p58
aS'kos17'
p59
aS'kos22'
p60
aS'kos24'
p61
aS'kos29'
p62
aS'kos31'
p63
aS'kos32'
p64
aS'kos36'
p65
aS'kos39'
p66
aS'kos40'
p67
aS'kos42'
p68
aS'kos44'
p69
aS'kos48'
p70
aa(lp71
S'kos05'
p72
aS'kos07'
p73
aS'kos12'
p74
aS'kos13'
p75
aS'kos14'
p76
aS'kos16'
p77
aS'kos18'
p78
aS'kos20'
p79
aS'kos23'
p80
aS'kos26'
p81
aS'kos33'
p82
aS'kos34'
p83
aS'kos35'
p84
aS'kos45'
p85
aS'kos49'
p86
aS'kos50'
p87
aa(lp88
g6
ag36
aS'kos03'
p89
ag5
ag11
aS'kos06'
p90
aS'kos07'
p91
ag37
ag38
ag39
aS'kos11'
p92
aS'kos12'
p93
aS'kos13'
p94
ag7
ag40
aS'kos16'
p95
aS'kos17'
p96
aS'kos18'
p97
ag41
aS'kos20'
p98
ag42
aS'kos22'
p99
aS'kos23'
p100
ag8
ag43
ag4
ag44
ag45
aS'kos29'
p101
ag46
aS'kos31'
p102
aS'kos32'
p103
ag2
aS'kos34'
p104
ag9
aS'kos36'
p105
ag47
ag48
aS'kos39'
p106
aS'kos40'
p107
ag49
ag10
ag50
aS'kos44'
p108
aS'kos45'
p109
ag51
ag52
aS'kos48'
p110
ag3
aS'kos50'
p111
atp112
.