((lp0
(lp1
S'kos04'
p2
aS'kos05'
p3
aS'kos24'
p4
aS'kos35'
p5
aS'kos33'
p6
aa(lp7
S'kos20'
p8
aS'kos41'
p9
aS'kos15'
p10
aS'kos21'
p11
aS'kos05'
p12
aa(lp13
S'kos21'
p14
aS'kos17'
p15
aS'kos09'
p16
aS'kos48'
p17
aS'kos24'
p18
aa(lp19
(lp20
S'kos02'
p21
aS'kos08'
p22
aS'kos09'
p23
aS'kos10'
p24
aS'kos15'
p25
aS'kos19'
p26
aS'kos21'
p27
aS'kos25'
p28
aS'kos27'
p29
aS'kos28'
p30
aS'kos30'
p31
aS'kos37'
p32
aS'kos38'
p33
aS'kos41'
p34
aS'kos43'
p35
aS'kos46'
p36
aS'kos47'
p37
aa(lp38
S'kos01'
p39
aS'kos03'
p40
aS'kos04'
p41
aS'kos06'
p42
aS'kos11'
p43
aS'kos17'
p44
aS'kos22'
p45
aS'kos24'
p46
aS'kos29'
p47
aS'kos31'
p48
aS'kos32'
p49
aS'kos36'
p50
aS'kos39'
p51
aS'kos40'
p52
aS'kos42'
p53
aS'kos44'
p54
aS'kos48'
p55
aa(lp56
S'kos05'
p57
aS'kos07'
p58
aS'kos12'
p59
aS'kos13'
p60
aS'kos14'
p61
aS'kos16'
p62
aS'kos18'
p63
aS'kos20'
p64
aS'kos23'
p65
aS'kos26'
p66
aS'kos33'
p67
aS'kos34'
p68
aS'kos35'
p69
aS'kos45'
p70
aS'kos49'
p71
aS'kos50'
p72
aa(lp73
S'kos01'
p74
ag21
aS'kos03'
p75
ag2
ag3
aS'kos06'
p76
aS'kos07'
p77
ag22
ag23
ag24
aS'kos11'
p78
aS'kos12'
p79
aS'kos13'
p80
aS'kos14'
p81
ag25
aS'kos16'
p82
aS'kos17'
p83
aS'kos18'
p84
ag26
aS'kos20'
p85
ag27
aS'kos22'
p86
aS'kos23'
p87
ag4
ag28
aS'kos26'
p88
ag29
ag30
aS'kos29'
p89
ag31
aS'kos31'
p90
aS'kos32'
p91
ag6
aS'kos34'
p92
ag5
aS'kos36'
p93
ag32
ag33
aS'kos39'
p94
aS'kos40'
p95
ag34
aS'kos42'
p96
ag35
aS'kos44'
p97
aS'kos45'
p98
ag36
ag37
aS'kos48'
p99
aS'kos49'
p100
aS'kos50'
p101
atp102
.